(dp1
S'Merkmal'
p2
S'feature'
p3
sS'roh'
p4
S'rough'
p5
sS'Zugabe'
p6
S'addition'
p7
sS'haupts\xc3\xa4chlich'
p8
S'main'
p9
sS'Haken'
p10
S'hook'
p11
sS'Winter'
p12
S'winter'
p13
sS'Verh\xc3\xa4ltnis'
p14
S'relationship'
p15
sS'Nase'
p16
S'nose'
p17
sS'landen'
p18
S'land'
p19
sS'Gem\xc3\xa4lde'
p20
S'painting'
p21
sS'Vertrag'
p22
S'agreement'
p23
sS'Stille'
p24
S'silence'
p25
sS'beliebig'
p26
S'any'
p27
sS'Republik'
p28
S'democracy'
p29
sS'Unterbrechung'
p30
S'pause'
p31
sS'Erhebung'
p32
S'research'
p33
sS'Schlacht'
p34
S'fight'
p35
sS'zumachen'
p36
S'close'
p37
sS'Vorleger'
p38
S'carpet'
p39
sS'Standard'
p40
S'standard'
p41
sS'Wein'
p42
S'wine'
p43
sS'Familie'
p44
S'family'
p45
sS'Atmosph\xc3\xa4re'
p46
S'atmosphere'
p47
sS'Uhr'
p48
S'watch'
p49
sS'beschuldigen'
p50
S'accuse'
p51
sS'Oberherrschaft'
p52
S'dominion'
p53
sS'Platz'
p54
S'seat'
p55
sS'Ruhe'
p56
S'quiet'
p57
sS'Grenze'
p58
S'limit'
p59
sS'Hieb'
p60
S'hit'
p61
sS'Projekt'
p62
S'project'
p63
sS'Farbe'
p64
S'paint'
p65
sS'Region'
p66
S'region'
p67
sS'Schrank'
p68
S'cupboard'
p69
sS'September'
p70
S'September'
p71
sS'letzter'
p72
S'finally'
p73
sS'Rechnungsstellung'
p74
S'invoice'
p75
sS'Salz'
p76
S'salt'
p77
sS'Periode'
p78
S'period'
p79
sS'Stellungnahme'
p80
S'opinion'
p81
sS'Aktivit\xc3\xa4t'
p82
S'activity'
p83
sS'Richter'
p84
S'judge'
p85
sS'Kampagne'
p86
S'campaign'
p87
sS'Rand'
p88
S'edge'
p89
sS'Wahl'
p90
S'choice'
p91
sS'Programm'
p92
S'program'
p93
sS'Ruck'
p94
S'jolt'
p95
sS'Reise'
p96
S'journey'
p97
sS'gef\xc3\xa4hrlich'
p98
S'dangerous'
p99
sS'ungef\xc3\xa4hr'
p100
S'approximately'
p101
sS'Rest'
p102
S'rest'
p103
sS'Bl\xc3\xa4tter'
p104
S'leaf'
p105
sS'Psyche'
p106
S'mind'
p107
sS'Trend'
p108
S'trend'
p109
sS'Tag'
p110
S'day'
p111
sS'gut'
p112
S'well'
p113
sS'bleiben'
p114
S'stay'
p115
sS'Quadrat'
p116
S'square'
p117
sS'Ring'
p118
S'ring'
p119
sS'Ameise'
p120
S'ant'
p121
sS'Mehrfachm\xc3\xb6glichkeit'
p122
S'option'
p123
sS'anh\xc3\xb6ren'
p124
S'listen'
p125
sS'Thema'
p126
S'subject'
p127
sS'nahrung'
p128
S'food'
p129
sS'Brief'
p130
S'letter'
p131
sS'verteilen'
p132
S'divide'
p133
sS'beeinflussen'
p134
S'affect'
p135
sS'elegant'
p136
S'stylish'
p137
sS'vielleicht'
p138
S'possibly'
p139
sS'Daumen'
p140
S'thumb'
p141
sS'vorkommen'
p142
S'happen'
p143
sS'Strafe'
p144
S'punishment'
p145
sS'Lage'
p146
S'situation'
p147
sS'Schwester'
p148
S'sister'
p149
sS'Bruder'
p150
S'brother'
p151
sS'Kultur'
p152
S'culture'
p153
sS'Haltung'
p154
S'behavior'
p155
sS'Form'
p156
S'shape'
p157
sS'rot'
p158
S'red'
p159
sS'Nachtzeit'
p160
S'night'
p161
sS'trinken'
p162
S'drink'
p163
sS'Geb\xc3\xa4ude'
p164
S'building'
p165
sS'versuchen'
p166
S'try'
p167
sS'Knochen'
p168
S'bone'
p169
sS'sch\xc3\xa4tzen'
p170
S'estimate'
p171
sS'Schlussfolgerung'
p172
S'decision'
p173
sS'Klage'
p174
S'complaint'
p175
sS'Steuer'
p176
S'tax'
p177
sS'dort'
p178
S'there'
p179
sS'Photograph'
p180
S'photographer'
p181
sS'Gift'
p182
S'poison'
p183
sS'Ausbildung'
p184
S'training'
p185
sS'Z\xc3\xbcndholz'
p186
S'match'
p187
sS'bringen'
p188
S'bring'
p189
sS'Stecker'
p190
S'connection'
p191
sS'drei'
p192
S'three'
p193
sS'vertreten'
p194
S'represent'
p195
sS'nicht'
p196
S'not'
p197
sS'Flugplatz'
p198
S'airport'
p199
sS'verbringen'
p200
S'spend'
p201
sS'zwischen'
p202
S'between'
p203
sS'zur\xc3\xbcckgeben'
p204
S'render'
p205
sS'Gesch\xc3\xa4ft'
p206
S'shop'
p207
sS'Ku\xc3\x9f'
p208
S'kiss'
p209
sS'Verdienst'
p210
S'profit'
p211
sS'heikel'
p212
S'dainty'
p213
sS'gerade'
p214
S'exactly'
p215
sS'ansehen'
p216
S'watch'
p217
sS'Verabredung'
p218
S'date'
p219
sS'fragen'
p220
S'ask'
p221
sS'Preis'
p222
S'price'
p223
sS'Niederlassung'
p224
S'institution'
p225
sS'Auskunft'
p226
S'information'
p227
sS'Zerquetschung'
p228
S'crush'
p229
sS'untergeordnet'
p230
S'subject'
p231
sS'wie'
p232
S'equally'
p233
sS'statt dessen'
p234
S'instead'
p235
sS'Fu\xc3\x9fball'
p236
S'football'
p237
sS'unterst\xc3\xbctzen'
p238
S'support'
p239
sS'vorbeugen'
p240
S'prevent'
p241
sS'leitender Verwaltungsangestellter'
p242
S'director'
p243
sS'preisgeben'
p244
S'reveal'
p245
sS'die Funktion'
p246
S'function'
p247
sS'Schnitzer'
p248
S'mistake'
p249
sS'aufw\xc3\xa4rts'
p250
S'up'
p251
sS'Habseligkeiten'
p252
S'property'
p253
sS'Wirtschaftssystem'
p254
S'economy'
p255
sS'Polizist'
p256
S'policeman'
p257
sS'Industrie'
p258
S'industry'
p259
sS'Sprache'
p260
S'language'
p261
sS'reagieren'
p262
S'reply'
p263
sS'aufzeichnen'
p264
S'record'
p265
sS'F\xc3\xa4higkeit'
p266
S'ability'
p267
sS'aufkl\xc3\xa4ren'
p268
S'explain'
p269
sS'Saurer Regen'
p270
S'acid rain'
p271
sS'\xc3\xb6ffnen'
p272
S'open'
p273
sS'Rechner'
p274
S'computer'
p275
sS'Frankreich'
p276
S'France'
p277
sS'Mannschaft'
p278
S'team'
p279
sS'Korb'
p280
S'basket'
p281
sS'St\xc3\xa4rke'
p282
S'strength'
p283
sS'Hut'
p284
S'hat'
p285
sS'kapitulieren'
p286
S'give up'
p287
sS'Moment'
p288
S'moment'
p289
sS'Sommerzeit'
p290
S'summer'
p291
sS'Baseball'
p292
S'baseball'
p293
sS'befehlen'
p294
S'order'
p295
sS'alleinstehend'
p296
S'single'
p297
sS'Ebene'
p298
S'plain'
p299
sS'Donnerstag'
p300
S'Thursday'
p301
sS'langweilig'
p302
S'boring'
p303
sS'Land'
p304
S'country'
p305
sS'bewusst'
p306
S'conscious'
p307
sS'Deutschland'
p308
S'Germany'
p309
sS'Vergn\xc3\xbcgung'
p310
S'entertainment'
p311
sS'Liebling'
p312
S'dear'
p313
sS'Person'
p314
S'person'
p315
sS'das Geschick'
p316
S'skill'
p317
sS'sicher'
p318
S'certain'
p319
sS'Gruppierung'
p320
S'group'
p321
sS'eins'
p322
S'one'
p323
sS'sieben'
p324
S'seven'
p325
sS'annoncieren'
p326
S'announce'
p327
sS'Zeitschrift'
p328
S'magazine'
p329
sS'verstecken'
p330
S'hide'
p331
sS'metallisch'
p332
S'metal'
p333
sS'Haar'
p334
S'hair'
p335
sS'anerkennen'
p336
S'admit'
p337
sS'Kurve'
p338
S'curve'
p339
sS'Wagnis'
p340
S'risk'
p341
sS'stehen'
p342
S'stand'
p343
sS'springen'
p344
S'jump'
p345
sS'wirklich'
p346
S'really'
p347
sS'Poem'
p348
S'poem'
p349
sS'zumal'
p350
S'particularly'
p351
sS'Quelle'
p352
S'spring'
p353
sS'R\xc3\xbccken'
p354
S'back'
p355
sS'bed\xc3\xbcrfen'
p356
S'need'
p357
sS'Sorte'
p358
S'kind'
p359
sS'neun'
p360
S'nine'
p361
sS'Schlager'
p362
S'hit'
p363
sS'Schlange'
p364
S'snake'
p365
sS'sterben'
p366
S'die'
p367
sS'tsch\xc3\xbcss'
p368
S'hello'
p369
sS'Energie'
p370
S'energy'
p371
sS'speckig'
p372
S'fat'
p373
sS'mehr'
p374
S'more'
p375
sS'wegschaffen'
p376
S'remove'
p377
sS'Junge'
p378
S'boy'
p379
sS'Geruch'
p380
S'smell'
p381
sS'Zucker'
p382
S'sugar'
p383
sS'vierzig'
p384
S'forty'
p385
sS'Bohne'
p386
S'bean'
p387
sS'entgegensehen'
p388
S'expect'
p389
sS'bewegen sich'
p390
S'travel'
p391
sS'zweite'
p392
S'second'
p393
sS'Fall'
p394
S'case'
p395
sS'Billigung'
p396
S'approval'
p397
sS'gro\xc3\x9f'
p398
S'big'
p399
sS'sich verhalten'
p400
S'behave'
p401
sS'bezeichnen'
p402
S'title'
p403
sS'Vieh'
p404
S'animal'
p405
sS'Rohrleitung'
p406
S'pipe'
p407
sS'Knoblauch'
p408
S'garlic'
p409
sS'Stimme'
p410
S'voice'
p411
sS'klar'
p412
S'bright'
p413
sS'Politiker'
p414
S'politician'
p415
sS'behandeln'
p416
S'treat'
p417
sS'drucken'
p418
S'print'
p419
sS'billig'
p420
S'cheap'
p421
sS'Messung'
p422
S'measurement'
p423
sS'Erde'
p424
S'earth'
p425
sS'halten'
p426
S'survive'
p427
sS'Vorschlag'
p428
S'suggestion'
p429
sS'Kehle'
p430
S'throat'
p431
sS'Menstruation'
p432
S'menstruation'
p433
sS'kaufen'
p434
S'buy'
p435
sS'Augenblick'
p436
S'moment'
p437
sS'Umschlag'
p438
S'cover'
p439
sS'Flugzeug'
p440
S'plane'
p441
sS'mitten unter'
p442
S'among'
p443
sS'Stunde'
p444
S'hour'
p445
sS'Bericht'
p446
S'report'
p447
sS'Vormittag'
p448
S'morning'
p449
sS'Nerv'
p450
S'nerve'
p451
sS'Tarif'
p452
S'rate'
p453
sS'bekommen'
p454
S'get'
p455
sS'Monat'
p456
S'month'
p457
sS'Sohn'
p458
S'son'
p459
sS'Britannien'
p460
S'United Kingdom'
p461
sS'Januar'
p462
S'January'
p463
sS'Armee'
p464
S'army'
p465
sS'Film'
p466
S'movie'
p467
sS'Sektion'
p468
S'section'
p469
sS'Wetter'
p470
S'weather'
p471
sS'Druck'
p472
S'pressure'
p473
sS'eigen'
p474
S'own'
p475
sS'Verbindung'
p476
S'connection'
p477
sS'verlangen'
p478
S'request'
p479
sS'Frage'
p480
S'question'
p481
sS'der August'
p482
S'August'
p483
sS'heiraten'
p484
S'marry'
p485
sS'beibringen'
p486
S'teach'
p487
sS'jeder'
p488
S'everybody'
p489
sS'anrufen'
p490
S'call'
p491
sS'Vielfalt'
p492
S'diversity'
p493
sS'Fahrrad'
p494
S'bike'
p495
sS'Leim'
p496
S'glue'
p497
sS'Weise'
p498
S'manner'
p499
sS'St\xc3\xa4ngel'
p500
S'stem'
p501
sS'enden'
p502
S'end'
p503
sS'S\xc3\xbc\xc3\x9figkeit'
p504
S'sweet'
p505
sS'Chemie'
p506
S'chemistry'
p507
sS'Kraftanstrengung'
p508
S'effort'
p509
sS'regieren'
p510
S'rule'
p511
sS'Antwort'
p512
S'answer'
p513
sS'abw\xc3\xa4rts'
p514
S'down'
p515
sS'Stein'
p516
S'stone'
p517
sS'Kaffee'
p518
S'coffee'
p519
sS'Technologie'
p520
S'technology'
p521
sS'ausstatten'
p522
S'supply'
p523
sS'messen'
p524
S'measure'
p525
sS'gesund'
p526
S'healthy'
p527
sS'tragen'
p528
S'carry'
p529
sS'Auseinandersetzung'
p530
S'argument'
p531
sS'Belohnung'
p532
S'wages'
p533
sS'Herz'
p534
S'heart'
p535
sS'Dezember'
p536
S'December'
p537
sS'Dorf'
p538
S'village'
p539
sS'orange'
p540
S'orange'
p541
sS'Fotoapparat'
p542
S'camera'
p543
sS'endg\xc3\xbcltig'
p544
S'final'
p545
sS'Hass'
p546
S'hate'
p547
sS'Antrag'
p548
S'offer'
p549
sS'Buch'
p550
S'book'
p551
sS'vordere'
p552
S'forward'
p553
sS'Silber'
p554
S'silver'
p555
sS'beschreiben'
p556
S'describe'
p557
sS'Deutsche'
p558
S'German'
p559
sS'Zunge'
p560
S'tongue'
p561
sS'w\xc3\xa4hlen'
p562
S'choose'
p563
sS'kommen'
p564
S'come'
p565
sS'polieren'
p566
S'polish'
p567
sS'vorbei'
p568
S'by'
p569
sS'Abfall'
p570
S'waste'
p571
sS'Karotte'
p572
S'carrot'
p573
sS'ablehnen'
p574
S'refuse'
p575
sS'Tabelle'
p576
S'table'
p577
sS'Woche'
p578
S'week'
p579
sS'Doktor'
p580
S'doctor'
p581
sS'tausend'
p582
S'thousand'
p583
sS'k\xc3\xb6niglich'
p584
S'royal'
p585
sS'Interesse'
p586
S'interest'
p587
sS'Ananas'
p588
S'pineapple'
p589
sS'eben'
p590
S'even'
p591
sS'aufbauen'
p592
S'establish'
p593
sS'Mehrheit'
p594
S'majority'
p595
sS'das Ged\xc3\xa4chtnis'
p596
S'memory'
p597
sS'Wiederkehr'
p598
S'return'
p599
sS'siebzig'
p600
S'seventy'
p601
sS'Freitag'
p602
S'Friday'
p603
sS'Gehirn'
p604
S'brain'
p605
sS'Nachbar'
p606
S'neighbor'
p607
sS'erdulden'
p608
S'suffer'
p609
sS'lachen'
p610
S'laugh'
p611
sS'Stiel'
p612
S'handle'
p613
sS'Feder'
p614
S'feather'
p615
sS'Vorhang'
p616
S'curtain'
p617
sS'\xc3\xbcber'
p618
S'above'
p619
sS'sp\xc3\xa4ter'
p620
S'later'
p621
sS'Pr\xc3\xbcfung'
p622
S'examination'
p623
sS'zusammenschlie\xc3\x9fen'
p624
S'join'
p625
sS'Arte'
p626
S'art'
p627
sS'Herbst'
p628
S'autumn'
p629
sS'gemeinsam'
p630
S'common'
p631
sS'beginnen'
p632
S'begin'
p633
sS'hart'
p634
S'firm'
p635
sS'Beispiel'
p636
S'example'
p637
sS'Ross'
p638
S'horse'
p639
sS'Schriftsteller'
p640
S'writer'
p641
sS'Ziege'
p642
S'goat'
p643
sS'haben'
p644
S'have'
p645
sS'Dominanz'
p646
S'dominance'
p647
sS'kopieren'
p648
S'copy'
p649
sS'Sekunde'
p650
S'second'
p651
sS'Job'
p652
S'occupation'
p653
sS'China'
p654
S'China'
p655
sS'Rumpf'
p656
S'body'
p657
sS'Baby'
p658
S'baby'
p659
sS'bei\xc3\x9fen'
p660
S'bite'
p661
sS'Einheit'
p662
S'unit'
p663
sS'\xc3\xbcbereinstimmen'
p664
S'agree'
p665
sS'die Sprache'
p666
S'language'
p667
sS'gro\xc3\x9fartig'
p668
S'great'
p669
sS'bestimmen'
p670
S'decide'
p671
sS'Theater'
p672
S'theater'
p673
sS'geheim'
p674
S'secret'
p675
sS'vierzehn'
p676
S'fourteen'
p677
sS'Teil'
p678
S'part'
p679
sS'auch'
p680
S'too'
p681
sS'Stirn'
p682
S'forehead'
p683
sS'das Handy'
p684
S'cellphone'
p685
sS'erfreuen'
p686
S'please'
p687
sS'zehn'
p688
S'ten'
p689
sS'Licht'
p690
S'light'
p691
sS'Schritt'
p692
S'step'
p693
sS'Fuss'
p694
S'foot'
p695
sS'probieren'
p696
S'test'
p697
sS'Weltraum'
p698
S'space'
p699
sS'speziell'
p700
S'special'
p701
sS'Wesentliche'
p702
S'center'
p703
sS'Brot'
p704
S'bread'
p705
sS'vorbereiten'
p706
S'prepare'
p707
sS'Bestimmung'
p708
S'finish'
p709
sS'oftmals'
p710
S'often'
p711
sS'Verwaltung'
p712
S'management'
p713
sS'hassen'
p714
S'hate'
p715
sS'Automobil'
p716
S'car'
p717
sS'Profi'
p718
S'professional'
p719
sS'Lehrkraft'
p720
S'teacher'
p721
sS'dritter'
p722
S'third'
p723
sS'Konto'
p724
S'account'
p725
sS'Pause'
p726
S'break'
p727
sS'Handel'
p728
S'bargain'
p729
sS'pappig'
p730
S'sticky'
p731
sS'fangen'
p732
S'catch'
p733
sS'besuchen'
p734
S'visit'
p735
sS'm\xc3\xa4nnlich'
p736
S'male'
p737
sS'Stellung'
p738
S'position'
p739
sS'Prozedur'
p740
S'procedure'
p741
sS'v\xc3\xb6llig'
p742
S'full'
p743
sS'ungleich'
p744
S'different'
p745
sS'Behandlung'
p746
S'treatment'
p747
sS'Kleinod'
p748
S'jewel'
p749
sS'Frau'
p750
S'woman'
p751
sS'schlagen'
p752
S'beat'
p753
sS'H\xc3\xa4lfte'
p754
S'half'
p755
sS'Post'
p756
S'mail'
p757
sS'tod'
p758
S'death'
p759
sS'Paar'
p760
S'couple'
p761
sS'nehmen'
p762
S'take'
p763
sS'attackieren'
p764
S'attack'
p765
sS'falsch'
p766
S'fake'
p767
sS'Gesellschaft'
p768
S'organization'
p769
sS'nur'
p770
S'simply'
p771
sS'braun'
p772
S'brown'
p773
sS'benennen'
p774
S'name'
p775
sS'Milchshake'
p776
S'milkshake'
p777
sS'Staub'
p778
S'powder'
p779
sS'sofort'
p780
S'immediately'
p781
sS'L\xc3\xbcge'
p782
S'lie'
p783
sS'umsonst'
p784
S'free'
p785
sS'Verwendung'
p786
S'use'
p787
sS'Klimaver\xc3\xa4nderung'
p788
S'climate change'
p789
sS'Kurs'
p790
S'course'
p791
sS'sicherlich'
p792
S'surely'
p793
sS'Verzierung'
p794
S'decoration'
p795
sS'Leute'
p796
S'public'
p797
sS'bauen'
p798
S'build'
p799
sS'n\xc3\xa4hen'
p800
S'sew'
p801
sS'Kartoffel'
p802
S'potato'
p803
sS'Stockwerk'
p804
S'floor'
p805
sS'\xc3\xa4ndern'
p806
S'change'
p807
sS'zurechnen'
p808
S'add'
p809
sS'Sex'
p810
S'sex'
p811
sS'H\xc3\xb6hepunkt'
p812
S'top'
p813
sS'dann'
p814
S'then'
p815
sS'ringf\xc3\xb6rmig'
p816
S'round'
p817
sS'Rede'
p818
S'speech'
p819
sS'einsam'
p820
S'alone'
p821
sS'K\xc3\xb6nig'
p822
S'king'
p823
sS'Musiker'
p824
S'musician'
p825
sS'bestehen'
p826
S'exist'
p827
sS'Vorraum'
p828
S'hall'
p829
sS'finanziell'
p830
S'financial'
p831
sS'Sorgfalt'
p832
S'care'
p833
sS'lebendig'
p834
S'alive'
p835
sS'Schere'
p836
S'scissors'
p837
sS'Tat'
p838
S'act'
p839
sS'Poesie'
p840
S'poetry'
p841
sS'richtig'
p842
S'correct'
p843
sS'tasten'
p844
S'feel'
p845
sS'Diskussion'
p846
S'discussion'
p847
sS'Zensur'
p848
S'grade'
p849
sS'Vergn\xc3\xbcgen'
p850
S'pleasure'
p851
sS'Hals'
p852
S'neck'
p853
sS'Halt'
p854
S'stop'
p855
sS'Zuwachs'
p856
S'increase'
p857
sS'Glas'
p858
S'glass'
p859
sS'Fu\xc3\x9fboden'
p860
S'floor'
p861
sS'Mutter'
p862
S'mother'
p863
sS'Handkoffer'
p864
S'suitcase'
p865
sS'Minister'
p866
S'minister'
p867
sS'\xc3\xbcbergeben'
p868
S'pass'
p869
sS'die Ladung'
p870
S'charge'
p871
sS'Gemahlin'
p872
S'wife'
p873
sS'Schlummer'
p874
S'sleep'
p875
sS'Bank'
p876
S'bank'
p877
sS'dreizehn'
p878
S'thirteen'
p879
sS'Ausweis'
p880
S'pass'
p881
sS'Artist'
p882
S'artist'
p883
sS'Tochter'
p884
S'daughter'
p885
sS'S\xc3\xbcden'
p886
S'south'
p887
sS'Mode'
p888
S'vogue'
p889
sS'Wohnung'
p890
S'flat'
p891
sS'heute abend'
p892
S'tonight'
p893
sS'Sein'
p894
S'existence'
p895
sS'Attacke'
p896
S'attack'
p897
sS'Kapital'
p898
S'capital'
p899
sS'hineinkommen'
p900
S'enter'
p901
sS'Geburt'
p902
S'birth'
p903
sS'badezimmer'
p904
S'bathroom'
p905
sS'Reichweite'
p906
S'reach'
p907
sS'fremd'
p908
S'foreign'
p909
sS'Furcht'
p910
S'fear'
p911
sS'W\xc3\xb6rterbuch'
p912
S'dictionary'
p913
sS'Verfahren'
p914
S'process'
p915
sS'Verbrechen'
p916
S'crime'
p917
sS'f\xc3\xbcnfzig'
p918
S'fifty'
p919
sS'weitermachen'
p920
S'continue'
p921
sS'Gegenteil'
p922
S'opposite'
p923
sS'Verantwortung'
p924
S'responsibility'
p925
sS'Bitte'
p926
S'request'
p927
sS'Wettbewerber'
p928
S'competitor'
p929
sS'Regime'
p930
S'government'
p931
sS'Zunft'
p932
S'club'
p933
sS'Marke'
p934
S'brand'
p935
sS'inwendig'
p936
S'inside'
p937
sS'Weg'
p938
S'road'
p939
sS'Weile'
p940
S'while'
p941
sS'weiter'
p942
S'further'
p943
sS'bewirken'
p944
S'cause'
p945
sS'die Chemikalie'
p946
S'chemical'
p947
sS'Schluss'
p948
S'end'
p949
sS'zwantig'
p950
S'twenty'
p951
sS'Markt'
p952
S'market'
p953
sS'Religion'
p954
S'religion'
p955
sS'immer'
p956
S'always'
p957
sS'Beamter'
p958
S'officer'
p959
sS'Smog'
p960
S'smog'
p961
sS'flach'
p962
S'flat'
p963
sS'Problem'
p964
S'problem'
p965
sS'Sonne'
p966
S'sun'
p967
sS'betrachten'
p968
S'see'
p969
sS'offen'
p970
S'open'
p971
sS'Stufe'
p972
S'phase'
p973
sS'n\xc3\xa4chst'
p974
S'next'
p975
sS'vorstellen'
p976
S'introduce'
p977
sS'reden'
p978
S'talk'
p979
sS'Knie'
p980
S'knee'
p981
sS'daher'
p982
S'therefore'
p983
sS'Serie'
p984
S'serial'
p985
sS'Rauch'
p986
S'smoke'
p987
sS'Opa'
p988
S'grandfather'
p989
sS'Str\xc3\xb6mung'
p990
S'current'
p991
sS'Norden'
p992
S'north'
p993
sS'Gast'
p994
S'guest'
p995
sS'erhalten'
p996
S'keep'
p997
sS'Vergangenheit'
p998
S'past'
p999
sS'hauen'
p1000
S'smash'
p1001
sS'klein'
p1002
S'small'
p1003
sS'b\xc3\xb6se'
p1004
S'mean'
p1005
sS'entwerfen'
p1006
S'design'
p1007
sS'Erk\xc3\xa4ltung'
p1008
S'cold'
p1009
sS'Wettkampf'
p1010
S'contest'
p1011
sS'Seemann'
p1012
S'sailor'
p1013
sS'aufladen'
p1014
S'load'
p1015
sS'Wasser'
p1016
S'water'
p1017
sS'leben'
p1018
S'be'
p1019
sS'dose'
p1020
S'can'
p1021
sS'stoppen'
p1022
S'stop'
p1023
sS'elf'
p1024
S'eleven'
p1025
sS'einmal'
p1026
S'once'
p1027
sS'benutzen'
p1028
S'use'
p1029
sS'Titel'
p1030
S'championship'
p1031
sS'danken'
p1032
S'thank'
p1033
sS'winzig'
p1034
S'minute'
p1035
sS'B\xc3\xbcro'
p1036
S'office'
p1037
sS'grau'
p1038
S'gray'
p1039
sS'Krankenhaus'
p1040
S'hospital'
p1041
sS'gelb'
p1042
S'yellow'
p1043
sS'neunzig'
p1044
S'ninety'
p1045
sS'Netz'
p1046
S'net'
p1047
sS'nichts'
p1048
S'nothing'
p1049
sS'verkosten'
p1050
S'taste'
p1051
sS'schulen'
p1052
S'train'
p1053
sS'vier'
p1054
S'four'
p1055
sS'Zeug'
p1056
S'material'
p1057
sS'Kapelle'
p1058
S'band'
p1059
sS'unsauber'
p1060
S'dirty'
p1061
sS'Betrieb'
p1062
S'firm'
p1063
sS'Zukunft'
p1064
S'future'
p1065
sS'sch\xc3\xbctzen'
p1066
S'save'
p1067
sS'eignen'
p1068
S'own'
p1069
sS'anders'
p1070
S'another'
p1071
sS'Auszeichnung'
p1072
S'award'
p1073
sS'Summe'
p1074
S'total'
p1075
sS'diskutieren'
p1076
S'discuss'
p1077
sS'neben'
p1078
S'near'
p1079
sS'Mittelwert'
p1080
S'mean'
p1081
sS't\xc3\xb6richt'
p1082
S'silly'
p1083
sS'einfach'
p1084
S'simple'
p1085
sS'Bed\xc3\xbcrfnis'
p1086
S'demand'
p1087
sS'sehr'
p1088
S'very'
p1089
sS'still'
p1090
S'silent'
p1091
sS'Wunsch'
p1092
S'wish'
p1093
sS'Song'
p1094
S'song'
p1095
sS'Wille'
p1096
S'will'
p1097
sS'Schriftzeichen'
p1098
S'letter'
p1099
sS'Park'
p1100
S'park'
p1101
sS'fr\xc3\xbch'
p1102
S'early'
p1103
sS'Omnibus'
p1104
S'bus'
p1105
sS'Bewegung'
p1106
S'movement'
p1107
sS'popul\xc3\xa4r'
p1108
S'popular'
p1109
sS'barbarisch'
p1110
S'cruel'
p1111
sS'Umfang'
p1112
S'range'
p1113
sS'ausgleichen'
p1114
S'flush'
p1115
sS'eintreffen'
p1116
S'reach'
p1117
sS'achtzig'
p1118
S'eighty'
p1119
sS'offensichtlich'
p1120
S'obviously'
p1121
sS'abspiegeln'
p1122
S'reflect'
p1123
sS'Minute'
p1124
S'minute'
p1125
sS'pfl\xc3\xbcgen'
p1126
S'plow'
p1127
sS'Kind'
p1128
S'child'
p1129
sS'St\xc3\xbcckchen'
p1130
S'bit'
p1131
sS'Wissenschaft'
p1132
S'science'
p1133
sS'sich streiten'
p1134
S'argue'
p1135
sS'Kinn'
p1136
S'chin'
p1137
sS'Kino'
p1138
S'cinema'
p1139
sS'enthalten'
p1140
S'contain'
p1141
sS'hereinlegen'
p1142
S'trick'
p1143
sS'erm\xc3\xb6glichen'
p1144
S'allow'
p1145
sS'Kragen'
p1146
S'collar'
p1147
sS'Katze'
p1148
S'cat'
p1149
sS'Schauspieler'
p1150
S'actor'
p1151
sS'tun'
p1152
S'act'
p1153
sS'Schwierigkeit'
p1154
S'trouble'
p1155
sS'Kamera'
p1156
S'television camera'
p1157
sS'Kirche'
p1158
S'church'
p1159
sS'vorschlagen'
p1160
S'suggest'
p1161
sS'die Kleidung'
p1162
S'clothing'
p1163
sS'Sonntag'
p1164
S'Sunday'
p1165
sS'begegnen'
p1166
S'meet'
p1167
sS'Brust'
p1168
S'chest'
p1169
sS'Rolle'
p1170
S'coil'
p1171
sS'Datum'
p1172
S'date'
p1173
sS'Indien'
p1174
S'India'
p1175
sS'Metall'
p1176
S'metallic element'
p1177
sS'Mahlzeit'
p1178
S'meal'
p1179
sS'Disziplin'
p1180
S'discipline'
p1181
sS'br\xc3\xbcllen'
p1182
S'shout'
p1183
sS'U-Bahn'
p1184
S'subway'
p1185
sS'elektrischer'
p1186
S'electric'
p1187
sS'scharfsinnig'
p1188
S'sharp'
p1189
sS'Schaden'
p1190
S'damage'
p1191
sS'violett'
p1192
S'violet'
p1193
sS'rund um'
p1194
S'about'
p1195
sS'Montag'
p1196
S'Monday'
p1197
sS'Jahr'
p1198
S'year'
p1199
sS'Dienstag'
p1200
S'Tuesday'
p1201
sS'Ber\xc3\xbchrung'
p1202
S'touch'
p1203
sS'Haupt'
p1204
S'head'
p1205
sS'Note'
p1206
S'note'
p1207
sS'Regel'
p1208
S'rule'
p1209
sS'Toilette'
p1210
S'toilet'
p1211
sS'Kunde'
p1212
S'customer'
p1213
sS'Stoff'
p1214
S'cloth'
p1215
sS'Sache'
p1216
S'matter'
p1217
sS'Krieg'
p1218
S'war'
p1219
sS'Scheck'
p1220
S'check'
p1221
sS'sparen'
p1222
S'save'
p1223
sS'genie\xc3\x9fen'
p1224
S'enjoy'
p1225
sS'Schnellzug'
p1226
S'express'
p1227
sS'Italien'
p1228
S'Italy'
p1229
sS'Schwein'
p1230
S'pig'
p1231
sS'Sprung'
p1232
S'jump'
p1233
sS'Biologie'
p1234
S'biology'
p1235
sS'Plan'
p1236
S'plan'
p1237
sS'Notiz'
p1238
S'note'
p1239
sS'Gen'
p1240
S'gene'
p1241
sS'verbrennen'
p1242
S'burn'
p1243
sS'farbig'
p1244
S'color'
p1245
sS'Trank'
p1246
S'drink'
p1247
sS'Magen'
p1248
S'stomach'
p1249
sS'\xc3\xbcblich'
p1250
S'usual'
p1251
sS'Schule'
p1252
S'school'
p1253
sS'Aufmerksamkeit'
p1254
S'attention'
p1255
sS'Stadt'
p1256
S'city'
p1257
sS'Zittern'
p1258
S'shake'
p1259
sS'Vorteil'
p1260
S'advantage'
p1261
sS'Spieler'
p1262
S'player'
p1263
sS'Kraft'
p1264
S'power'
p1265
sS'Sturm'
p1266
S'storm'
p1267
sS'n\xc3\xa4chster'
p1268
S'following'
p1269
sS'Taste'
p1270
S'button'
p1271
sS'sechzehn'
p1272
S'sixteen'
p1273
sS'Gegenwart'
p1274
S'present'
p1275
sS'vollst\xc3\xa4ndig'
p1276
S'complete'
p1277
sS'General'
p1278
S'general'
p1279
sS'Sturz'
p1280
S'fall'
p1281
sS'Speisekarte'
p1282
S'menu'
p1283
sS'leiten'
p1284
S'manage'
p1285
sS'Schnitt'
p1286
S'cut'
p1287
sS'Pilot'
p1288
S'pilot'
p1289
sS'krank'
p1290
S'ill'
p1291
sS'ein'
p1292
S'a'
sS'Hoffnung'
p1293
S'promise'
p1294
sS'reinemachen'
p1295
S'clean'
p1296
sS'abrunden'
p1297
S'round off'
p1298
sS'Erzeugnis'
p1299
S'product'
p1300
sS'Porto'
p1301
S'stamp'
p1302
sS'bewegen'
p1303
S'move'
p1304
sS'wollen'
p1305
S'desire'
p1306
sS'Tennis'
p1307
S'tennis'
p1308
sS'blau'
p1309
S'blue'
p1310
sS'Mond'
p1311
S'Moon'
p1312
sS'ziehen'
p1313
S'pull'
p1314
sS'Zweifel'
p1315
S'doubt'
p1316
sS'im'
p1317
S'in'
p1318
sS'hinlegen'
p1319
S'put'
p1320
sS'vor'
p1321
S'ago'
p1322
sS'Strom'
p1323
S'stream'
p1324
sS'achtzehn'
p1325
S'eighteen'
p1326
sS'genug'
p1327
S'enough'
p1328
sS'beweisen'
p1329
S'prove'
p1330
sS'Pokal'
p1331
S'cup'
p1332
sS'Freund'
p1333
S'boyfriend'
p1334
sS'ehren'
p1335
S'respect'
p1336
sS'Polizei'
p1337
S'police'
p1338
sS'ver\xc3\xb6ffentlichen'
p1339
S'publish'
p1340
sS'Mund'
p1341
S'mouth'
p1342
sS'Gesch\xc3\xa4ftsmann'
p1343
S'businessman'
p1344
sS'Zeitungsanzeige'
p1345
S'advertisement'
p1346
sS'Nation'
p1347
S'nation'
p1348
sS'Muskel'
p1349
S'muscle'
p1350
sS'S\xc3\xa4nger'
p1351
S'singer'
p1352
sS'Aufstieg'
p1353
S'rise'
p1354
sS'H\xc3\xb6he'
p1355
S'height'
p1356
sS'Treffen'
p1357
S'meeting'
p1358
sS'wahrscheinlich'
p1359
S'probably'
p1360
sS'Einzelteil'
p1361
S'part'
p1362
sS'Vereinigte Staaten'
p1363
S'United States'
p1364
sS'Pastinak'
p1365
S'parsnip'
p1366
sS'schnell'
p1367
S'quickly'
p1368
sS'Entdeckung'
p1369
S'discovery'
p1370
sS'Fertigungsanlage'
p1371
S'factory'
p1372
sS'bald'
p1373
S'soon'
p1374
sS'Versuch'
p1375
S'attempt'
p1376
sS'jetzt'
p1377
S'now'
p1378
sS'Reif'
p1379
S'frost'
p1380
sS'St\xc3\xbcck'
p1381
S'slice'
p1382
sS'Februar'
p1383
S'February'
p1384
sS'Eisen'
p1385
S'iron'
p1386
sS'Ehegemeinschaft'
p1387
S'marriage'
p1388
sS'P\xc3\xa4dagogik'
p1389
S'education'
p1390
sS'Gesundheit'
p1391
S'health'
p1392
sS'Mittwoch'
p1393
S'Wednesday'
p1394
sS'pl\xc3\xb6tzlich'
p1395
S'suddenly'
p1396
sS'Schleudern'
p1397
S'skid'
p1398
sS'verarbeiten'
p1399
S'process'
p1400
sS'Idee'
p1401
S'idea'
p1402
sS'entdecken'
p1403
S'discover'
p1404
sS'Schock'
p1405
S'shock'
p1406
sS'k\xc3\xbcssen'
p1407
S'kiss'
p1408
sS'Gurke'
p1409
S'cucumber'
p1410
sS'Kenntnis'
p1411
S'knowledge'
p1412
sS'Passagier'
p1413
S'passenger'
p1414
sS'Einzelwesen'
p1415
S'human'
p1416
sS'tanzen'
p1417
S'dance'
p1418
sS'Teilung'
p1419
S'division'
p1420
sS'verwunden'
p1421
S'injure'
p1422
sS'f\xc3\xbcnfzehn'
p1423
S'fifteen'
p1424
sS'Abend'
p1425
S'evening'
p1426
sS'aussehen'
p1427
S'look'
p1428
sS'Internet'
p1429
S'internet'
p1430
sS'wahr'
p1431
S'real'
p1432
sS'\xc3\xbcbertreffen'
p1433
S'exceed'
p1434
sS'Vater'
p1435
S'father'
p1436
sS'finden'
p1437
S'find'
p1438
sS'individuell'
p1439
S'private'
p1440
sS'Aufgabe'
p1441
S'project'
p1442
sS'Nachrichten'
p1443
S'news'
p1444
sS'Osten'
p1445
S'east'
p1446
sS'Treibhauseffekt'
p1447
S'greenhouse effect'
p1448
sS'Flamme'
p1449
S'fire'
p1450
sS'erledigen'
p1451
S'finish'
p1452
sS'Eruption'
p1453
S'outburst'
p1454
sS'Auge'
p1455
S'eye'
p1456
sS'zerquetschen'
p1457
S'crush'
p1458
sS'limitieren'
p1459
S'limit'
p1460
sS'Wind'
p1461
S'wind'
p1462
sS'ordnen'
p1463
S'classify'
p1464
sS'sp\xc3\xa4rlich'
p1465
S'sparse'
p1466
sS'Wachstum'
p1467
S'increase'
p1468
sS'Erm\xc3\xa4chtigung'
p1469
S'authority'
p1470
sS'sch\xc3\xa4len'
p1471
S'peel'
p1472
sS'Proklamation'
p1473
S'announcement'
p1474
sS'Eis'
p1475
S'ice'
p1476
sS'unter'
p1477
S'under'
p1478
sS'auff\xc3\xbcllen'
p1479
S'fill'
p1480
sS'zeichnen'
p1481
S'trace'
p1482
sS'Gelegenheit'
p1483
S'chance'
p1484
sS'sp\xc3\xa4t'
p1485
S'late'
p1486
sS'Fernseher'
p1487
S'television'
p1488
sS'geschickt'
p1489
S'skilful'
p1490
sS'verringern'
p1491
S'reduce'
p1492
sS'sitzen'
p1493
S'sit'
p1494
sS'Mann'
p1495
S'man'
p1496
sS'\xc3\xb6konomisch'
p1497
S'economic'
p1498
sS'profitieren'
p1499
S'profit'
p1500
sS'Br\xc3\xbccke'
p1501
S'bridge'
p1502
sS'sto\xc3\x9fen'
p1503
S'push'
p1504
sS'weinen'
p1505
S'cry'
p1506
sS'Westen'
p1507
S'west'
p1508
sS'fliegen'
p1509
S'fly'
p1510
sS'umfassen'
p1511
S'embrace'
p1512
sS'Operation'
p1513
S'operation'
p1514
sS'Husten'
p1515
S'cough'
p1516
sS'sechs'
p1517
S'six'
p1518
sS'ausgezeichnet'
p1519
S'excellent'
p1520
sS'Regen'
p1521
S'rain'
p1522
sS'\xc3\x96kologie'
p1523
S'ecology'
p1524
sS'Addition'
p1525
S'addition'
p1526
sS'handeln'
p1527
S'trade'
p1528
sS'unge\xc3\xb6ffnet'
p1529
S'closed'
p1530
sS'System'
p1531
S'system'
p1532
sS'Einspruch'
p1533
S'protest'
p1534
sS'gr\xc3\xbcn'
p1535
S'green'
p1536
sS'Wechsel'
p1537
S'change'
p1538
sS'schie\xc3\x9fen'
p1539
S'fire'
p1540
sS'Kuh'
p1541
S'cow'
p1542
sS'Vorderteil'
p1543
S'front'
p1544
sS'geradewegs'
p1545
S'directly'
p1546
sS'Fl\xc3\xa4che'
p1547
S'area'
p1548
sS'ersetzen'
p1549
S'replace'
p1550
sS'zwei'
p1551
S'two'
p1552
sS'Kommission'
p1553
S'committee'
p1554
sS'neulich'
p1555
S'recently'
p1556
sS'steigern'
p1557
S'enhance'
p1558
sS'Entwurf'
p1559
S'design'
p1560
sS'sich erinnern'
p1561
S'remember'
p1562
sS'Aufbau'
p1563
S'structure'
p1564
sS'Lift'
p1565
S'elevator'
p1566
sS'erzielen'
p1567
S'achieve'
p1568
sS'fr\xc3\xbcher'
p1569
S'former'
p1570
sS'Ergebnis'
p1571
S'result'
p1572
sS'M\xc3\xa4dchen'
p1573
S'girl'
p1574
sS'Status'
p1575
S'condition'
p1576
sS'Bild'
p1577
S'picture'
p1578
sS'zerbrechlich'
p1579
S'fragile'
p1580
sS'acht'
p1581
S'eight'
p1582
sS'weit'
p1583
S'wide'
p1584
sS'exerzieren'
p1585
S'do'
p1586
sS'Einzelheit'
p1587
S'detail'
p1588
sS'Treppenstufe'
p1589
S'step'
p1590
sS'jung'
p1591
S'young'
p1592
sS'hochheben'
p1593
S'lift'
p1594
sS'Beginn'
p1595
S'beginning'
p1596
sS'sich schlagen'
p1597
S'fight'
p1598
sS'zitieren'
p1599
S'mention'
p1600
sS'St\xc3\xbctzpunkt'
p1601
S'base'
p1602
sS'Ger\xc3\xa4usche'
p1603
S'noise'
p1604
sS'chemisch'
p1605
S'chemical'
p1606
sS'Argument'
p1607
S'argument'
p1608
sS'merkw\xc3\xbcrdig'
p1609
S'strange'
p1610
sS'Gesicht'
p1611
S'face'
p1612
sS'hier'
p1613
S'here'
p1614
sS'Transport'
p1615
S'transport'
p1616
sS'fehlerhaft'
p1617
S'wrong'
p1618
sS'Japan'
p1619
S'Japan'
p1620
sS'Blei'
p1621
S'lead'
p1622
sS'f\xc3\xbchren'
p1623
S'lead'
p1624
sS'Grund'
p1625
S'reason'
p1626
sS'verschieden'
p1627
S'various'
p1628
sS'Feuchtigkeit'
p1629
S'moisture'
p1630
sS'vorhaben'
p1631
S'mean'
p1632
sS'Schnabel'
p1633
S'beak'
p1634
sS'Klasse'
p1635
S'class'
p1636
sS'Hochzeit'
p1637
S'wedding'
p1638
sS'Oktober'
p1639
S'October'
p1640
sS'Umgebung'
p1641
S'environment'
p1642
sS'Segel'
p1643
S'sail'
p1644
sS'warten'
p1645
S'wait'
p1646
sS'Mittelpunkt'
p1647
S'center'
p1648
sS'Verm\xc3\xa4hlung'
p1649
S'wedding'
p1650
sS'Samstag'
p1651
S'Saturday'
p1652
sS'Ersatz'
p1653
S'substitution'
p1654
sS'Zwiebel'
p1655
S'onion'
p1656
sS'fast'
p1657
S'almost'
p1658
sS'Hand'
p1659
S'hand'
p1660
sS'Englisch'
p1661
S'English'
p1662
sS'Spanien'
p1663
S'Spain'
p1664
sS'Zweck'
p1665
S'purpose'
p1666
sS'Paket'
p1667
S'package'
p1668
sS'starr'
p1669
S'rigid'
p1670
sS'Liste'
p1671
S'list'
p1672
sS'erz\xc3\xa4hlen'
p1673
S'say'
p1674
sS'November'
p1675
S'November'
p1676
sS'Urlaub'
p1677
S'leave'
p1678
sS'Angaben'
p1679
S'data'
p1680
sS'Schrei'
p1681
S'cry'
p1682
sS'drei\xc3\x9fig'
p1683
S'thirty'
p1684
sS'Zeichen'
p1685
S'character'
p1686
sS'Gatte'
p1687
S'husband'
p1688
sS'der Humor'
p1689
S'humor'
p1690
sS'Tritt'
p1691
S'kick'
p1692
sS'Pflanze'
p1693
S'plant'
p1694
sS'helfen'
p1695
S'help'
p1696
sS'n\xc3\xbctzlig sein'
p1697
S'benefit'
p1698
sS'f\xc3\xbcnf'
p1699
S'five'
p1700
sS'Besitzer'
p1701
S'owner'
p1702
sS'freisetzen'
p1703
S'free'
p1704
sS'Lenz'
p1705
S'spring'
p1706
sS'zuerst'
p1707
S'first'
p1708
sS'L\xc3\xb6we'
p1709
S'lion'
p1710
sS'festgesetzt'
p1711
S'set'
p1712
sS'Blick'
p1713
S'expression'
p1714
sS'Vernichtung'
p1715
S'destruction'
p1716
sS'das Restaurant'
p1717
S'restaurant'
p1718
sS'Wald'
p1719
S'forest'
p1720
sS'Golf'
p1721
S'golf'
p1722
sS'Gold'
p1723
S'gold'
p1724
sS'demonstrieren'
p1725
S'show'
p1726
sS'schwierig'
p1727
S'difficult'
p1728
sS'Diener'
p1729
S'servant'
p1730
sS'neunzehn'
p1731
S'nineteen'
p1732
sS'leicht'
p1733
S'light'
p1734
sS'\xc3\x96l'
p1735
S'oil'
p1736
sS'Tropfen'
p1737
S'drop'
p1738
sS'Unterst\xc3\xbctzung'
p1739
S'help'
p1740
sS'Zeitung'
p1741
S'newspaper'
p1742
sS'sechzig'
p1743
S'sixty'
p1744
sS'wiederum'
p1745
S'again'
p1746
sS'entgegennehmen'
p1747
S'accept'
p1748
sS'riskieren'
p1749
S'risk'
p1750
sS'Banknote'
p1751
S'banknote'
p1752
sS'M\xc3\xb6bel'
p1753
S'furniture'
p1754
sS'Mitglied'
p1755
S'member'
p1756
sS'Prozente'
p1757
S'percent'
p1758
sS'Entwicklung'
p1759
S'evolution'
p1760
sS'Schlips'
p1761
S'tie'
p1762
sS'Masse'
p1763
S'mass'
p1764
sS'wenigsten'
p1765
S'least'
p1766
sS'die Zeit'
p1767
S'time'
p1768
sS'identifizieren'
p1769
S'identify'
p1770
sS'Erfindung'
p1771
S'invention'
p1772
sS'Sekret\xc3\xa4r'
p1773
S'secretary'
p1774
sS'Freundin'
p1775
S'girlfriend'
p1776
sS'Haut'
p1777
S'skin'
p1778
sS'Million'
p1779
S'million'
p1780
sS'Haus'
p1781
S'home'
p1782
sS'rosarot'
p1783
S'pink'
p1784
sS'der Anruf'
p1785
S'call'
p1786
sS'Abteilung'
p1787
S'part'
p1788
sS'Gericht'
p1789
S'court'
p1790
sS'Student'
p1791
S'student'
p1792
sS'Geschmack'
p1793
S'taste'
p1794
sS'Welle'
p1795
S'wave'
p1796
sS'Gef\xc3\xa4ngnis'
p1797
S'prison'
p1798
sS'Schienen'
p1799
S'track'
p1800
sS'gew\xc3\xb6hnlich'
p1801
S'usually'
p1802
sS'Schlafzimmer'
p1803
S'bedroom'
p1804
sS'kl\xc3\xa4glich'
p1805
S'sad'
p1806
sS'Wirkung'
p1807
S'consequence'
p1808
sS'Ferien'
p1809
S'holiday'
p1810
sS'Flug'
p1811
S'flight'
p1812
sS'Element'
p1813
S'component'
p1814
sS'Vergleich'
p1815
S'comparison'
p1816
sS'April'
p1817
S'April'
p1818
sS'Art und Weise'
p1819
S'means'
p1820
sS'Zug'
p1821
S'train'
p1822
sS'Testament'
p1823
S'will'
p1824
sS'R\xc3\xbcckstand'
p1825
S'rest'
p1826
sS'Hund'
p1827
S'dog'
p1828
sS'Abwehr'
p1829
S'defense'
p1830
sS'langsam'
p1831
S'slowly'
p1832
sS'scharf'
p1833
S'sharp'
p1834
sS'aufziehen'
p1835
S'raise'
p1836
sS'Mittagessen'
p1837
S'lunch'
p1838
sS'\xc3\xbcbersenden'
p1839
S'send'
p1840
sS'wichtig'
p1841
S'important'
p1842
sS'Kohl'
p1843
S'cabbage'
p1844
sS'Handtasche'
p1845
S'bag'
p1846
sS'waschen'
p1847
S'wash'
p1848
sS'Schmerz'
p1849
S'pain'
p1850
sS'Rhythmus'
p1851
S'rhythm'
p1852
sS'lernen'
p1853
S'learn'
p1854
sS'Punkt'
p1855
S'point'
p1856
sS'Kippe'
p1857
S'dump'
p1858
sS'allein'
p1859
S'entirely'
p1860
sS'\xc3\x84u\xc3\x9fere'
p1861
S'outside'
p1862
sS'trotzdem'
p1863
S'however'
p1864
sS'Grinsen'
p1865
S'smile'
p1866
s.